target datalayout = "e-m:e-p270:32:32-p271:32:32-p272:64:64-i64:64-i128:128-f80:128-n8:16:32:64-S128"
target triple = "x86_64-pc-linux-gnu"

%struct.CodedBitstreamContext = type { ptr, ptr, ptr, ptr, i32, i32, i32, ptr, ptr, ptr, ptr, i64 }
%struct.CodedBitstreamH2645Context = type { i32, i32, %struct.H2645Packet }
%struct.H2645Packet = type { ptr, %struct.H2645RBSP, i32, i32, i32 }
%struct.H2645RBSP = type { ptr, ptr, i32, i32 }
%struct.CodedBitstreamUnit = type { i32, ptr, i64, i64, ptr, ptr, ptr }
%struct.H265RawNALUnitHeader = type { i8, i8, i8 }
%struct.CodedBitstreamH265Context = type { %struct.CodedBitstreamH2645Context, [16 x ptr], [16 x ptr], [64 x ptr], ptr, ptr, ptr }
%struct.H265RawVPS = type { %struct.H265RawNALUnitHeader, i8, i8, i8, i8, i8, i8, %struct.H265RawProfileTierLevel, i8, [7 x i8], [7 x i8], [7 x i32], i8, i16, [1024 x [63 x i8]], i8, i32, i32, i8, i32, i16, [1024 x i16], [1024 x i8], [1024 x %struct.H265RawHRDParameters], i8, %struct.H265RawExtensionData }
%struct.H265RawProfileTierLevel = type { i8, i8, i8, [32 x i8], i8, i8, i8, i8, i8, i8, i8, i8, i8, i8, i8, i8, i8, i8, i8, i8, [7 x i8], [7 x i8], [7 x i8], [7 x i8], [7 x i8], [7 x [32 x i8]], [7 x i8], [7 x i8], [7 x i8], [7 x i8], [7 x i8], [7 x i8], [7 x i8], [7 x i8], [7 x i8], [7 x i8], [7 x i8], [7 x i8], [7 x i8], [7 x i8], [7 x i8], [7 x i8] }
%struct.H265RawHRDParameters = type { i8, i8, i8, i8, i8, i8, i8, i8, i8, i8, i8, i8, i8, [7 x i8], [7 x i8], [7 x i16], [7 x i8], [7 x i8], [7 x %struct.H265RawSubLayerHRDParameters], [7 x %struct.H265RawSubLayerHRDParameters] }
%struct.H265RawSubLayerHRDParameters = type { [32 x i32], [32 x i32], [32 x i32], [32 x i32], [32 x i8] }
%struct.H265RawExtensionData = type { ptr, ptr, i64 }

@.str = private unnamed_addr constant [30 x i8] c"Assertion %s failed at %s:%d\0A\00", align 1
@.str.3 = private unnamed_addr constant [23 x i8] c"libavcodec/cbs_h2645.c\00", align 1
@.str.114 = private unnamed_addr constant [18 x i8] c"unit->content_ref\00", align 1

; Function Attrs: nounwind uwtable
define internal i32 @cbs_h265_replace_vps(ptr noundef %0, ptr noundef %1) #0 {
  %3 = alloca i32, align 4
  %4 = alloca ptr, align 8
  %5 = alloca ptr, align 8
  %6 = alloca ptr, align 8
  %7 = alloca ptr, align 8
  %8 = alloca i32, align 4
  %9 = alloca i32, align 4
  %10 = alloca i32, align 4
  store ptr %0, ptr %4, align 8, !tbaa !4
  store ptr %1, ptr %5, align 8, !tbaa !49
  call void @llvm.lifetime.start.p0(i64 8, ptr %6) #11
  %11 = load ptr, ptr %4, align 8, !tbaa !4
  %12 = getelementptr inbounds nuw %struct.CodedBitstreamContext, ptr %11, i32 0, i32 2
  %13 = load ptr, ptr %12, align 8, !tbaa !23
  store ptr %13, ptr %6, align 8, !tbaa !118
  call void @llvm.lifetime.start.p0(i64 8, ptr %7) #11
  %14 = load ptr, ptr %5, align 8, !tbaa !49
  %15 = getelementptr inbounds nuw %struct.CodedBitstreamUnit, ptr %14, i32 0, i32 5
  %16 = load ptr, ptr %15, align 8, !tbaa !54
  store ptr %16, ptr %7, align 8, !tbaa !99
  call void @llvm.lifetime.start.p0(i64 4, ptr %8) #11
  %17 = load ptr, ptr %7, align 8, !tbaa !99
  %18 = getelementptr inbounds nuw %struct.H265RawVPS, ptr %17, i32 0, i32 1
  %19 = load i8, ptr %18, align 1, !tbaa !463
  %20 = zext i8 %19 to i32
  store i32 %20, ptr %8, align 4, !tbaa !11
  call void @llvm.lifetime.start.p0(i64 4, ptr %9) #11
  %21 = load ptr, ptr %4, align 8, !tbaa !4
  %22 = load ptr, ptr %5, align 8, !tbaa !49
  %23 = call i32 @ff_cbs_make_unit_refcounted(ptr noundef %21, ptr noundef %22)
  store i32 %23, ptr %9, align 4, !tbaa !11
  %24 = load i32, ptr %9, align 4, !tbaa !11
  %25 = icmp slt i32 %24, 0
  br i1 %25, label %26, label %28

26:                                               ; preds = %2
  %27 = load i32, ptr %9, align 4, !tbaa !11
  store i32 %27, ptr %3, align 4
  store i32 1, ptr %10, align 4
  br label %60

28:                                               ; preds = %2
  %29 = load ptr, ptr %6, align 8, !tbaa !118
  %30 = getelementptr inbounds nuw %struct.CodedBitstreamH265Context, ptr %29, i32 0, i32 1
  %31 = load i32, ptr %8, align 4, !tbaa !11
  %32 = zext i32 %31 to i64
  %33 = getelementptr inbounds nuw [16 x ptr], ptr %30, i64 0, i64 %32
  %34 = load ptr, ptr %33, align 8, !tbaa !99
  %35 = load ptr, ptr %6, align 8, !tbaa !118
  %36 = getelementptr inbounds nuw %struct.CodedBitstreamH265Context, ptr %35, i32 0, i32 4
  %37 = load ptr, ptr %36, align 8, !tbaa !123
  %38 = icmp eq ptr %34, %37
  br i1 %38, label %39, label %42

39:                                               ; preds = %28
  %40 = load ptr, ptr %6, align 8, !tbaa !118
  %41 = getelementptr inbounds nuw %struct.CodedBitstreamH265Context, ptr %40, i32 0, i32 4
  store ptr null, ptr %41, align 8, !tbaa !123
  br label %42

42:                                               ; preds = %39, %28
  br label %43

43:                                               ; preds = %42
  %44 = load ptr, ptr %5, align 8, !tbaa !49
  %45 = getelementptr inbounds nuw %struct.CodedBitstreamUnit, ptr %44, i32 0, i32 6
  %46 = load ptr, ptr %45, align 8, !tbaa !244
  %47 = icmp ne ptr %46, null
  br i1 %47, label %49, label %48

48:                                               ; preds = %43
  call void (ptr, i32, ptr, ...) @av_log(ptr noundef null, i32 noundef 0, ptr noundef @.str, ptr noundef @.str.114, ptr noundef @.str.3, i32 noundef 778)
  call void @abort() #12
  unreachable

49:                                               ; preds = %43
  br label %50

50:                                               ; preds = %49
  br label %51

51:                                               ; preds = %50
  %52 = load ptr, ptr %6, align 8, !tbaa !118
  %53 = getelementptr inbounds nuw %struct.CodedBitstreamH265Context, ptr %52, i32 0, i32 1
  %54 = load i32, ptr %8, align 4, !tbaa !11
  %55 = zext i32 %54 to i64
  %56 = getelementptr inbounds nuw [16 x ptr], ptr %53, i64 0, i64 %55
  %57 = load ptr, ptr %5, align 8, !tbaa !49
  %58 = getelementptr inbounds nuw %struct.CodedBitstreamUnit, ptr %57, i32 0, i32 6
  %59 = load ptr, ptr %58, align 8, !tbaa !244
  call void @av_refstruct_replace(ptr noundef %56, ptr noundef %59)
  store i32 0, ptr %3, align 4
  store i32 1, ptr %10, align 4
  br label %60

60:                                               ; preds = %51, %26
  call void @llvm.lifetime.end.p0(i64 4, ptr %9) #11
  call void @llvm.lifetime.end.p0(i64 4, ptr %8) #11
  call void @llvm.lifetime.end.p0(i64 8, ptr %7) #11
  call void @llvm.lifetime.end.p0(i64 8, ptr %6) #11
  %61 = load i32, ptr %3, align 4
  ret i32 %61
}