; Function Attrs: nounwind uwtable
define internal fastcc range(i32 -2147483648, 1) i32 @cbs_h265_replace_vps(ptr noundef %0, ptr noundef %1) unnamed_addr #0 {
  %3 = getelementptr inbounds nuw i8, ptr %0, i64 16
  %4 = load ptr, ptr %3, align 8, !tbaa !18
  %5 = getelementptr inbounds nuw i8, ptr %1, i64 40
  %6 = load ptr, ptr %5, align 8, !tbaa !62
  %7 = getelementptr inbounds nuw i8, ptr %6, i64 3
  %8 = load i8, ptr %7, align 1, !tbaa !338
  %9 = tail call i32 @ff_cbs_make_unit_refcounted(ptr noundef %0, ptr noundef %1) #11
  %10 = icmp slt i32 %9, 0
  br i1 %10, label %25, label %11

11:                                               ; preds = %2
  %12 = getelementptr inbounds nuw i8, ptr %4, i64 56
  %13 = zext i8 %8 to i64
  %14 = getelementptr inbounds nuw [16 x ptr], ptr %12, i64 0, i64 %13
  %15 = load ptr, ptr %14, align 8, !tbaa !361
  %16 = getelementptr inbounds nuw i8, ptr %4, i64 824
  %17 = load ptr, ptr %16, align 8, !tbaa !362
  %18 = icmp eq ptr %15, %17
  br i1 %18, label %19, label %20

19:                                               ; preds = %11
  store ptr null, ptr %16, align 8, !tbaa !362
  br label %20

20:                                               ; preds = %11, %19
  %21 = getelementptr inbounds nuw i8, ptr %1, i64 48
  %22 = load ptr, ptr %21, align 8, !tbaa !112
  %.not = icmp eq ptr %22, null
  br i1 %.not, label %23, label %24

23:                                               ; preds = %20
  tail call void (ptr, i32, ptr, ...) @av_log(ptr noundef null, i32 noundef 0, ptr noundef nonnull @.str, ptr noundef nonnull @.str.114, ptr noundef nonnull @.str.3, i32 noundef 778) #11
  tail call void @abort() #12
  unreachable

24:                                               ; preds = %20
  tail call void @av_refstruct_replace(ptr noundef nonnull %14, ptr noundef nonnull %22) #11
  br label %25

25:                                               ; preds = %2, %24
  %.0 = phi i32 [ 0, %24 ], [ %9, %2 ]
  ret i32 %.0
}